Certificate:
    Data:
        Version: 3 (0x2)
        Serial Number:
            af:9e:fd:af:71:57:b4:9c:d8:b1:1b:40:0d:e6:a0:3d
        Signature Algorithm: sha256WithRSAEncryption
        Issuer: CN=Red Hat Training
        Validity
            Not Before: Oct 24 05:35:38 2023 GMT
            Not After : Sep 30 05:35:38 2123 GMT
        Subject: CN=server
        Subject Public Key Info:
            Public Key Algorithm: rsaEncryption
                Public-Key: (2048 bit)
                Modulus:
                    00:c1:c6:a3:b2:4a:2e:56:a1:b0:67:56:18:d0:ab:
                    cc:f6:c8:2e:a1:5f:68:89:39:6c:55:7a:59:fc:94:
                    7a:9e:10:98:f2:01:5f:f8:0f:60:59:39:46:de:94:
                    6c:e5:0f:b9:4d:1a:42:7d:55:10:6f:a4:3d:ce:c3:
                    7f:49:bd:65:dc:97:66:10:4c:0c:83:35:a2:b8:2d:
                    a8:5b:46:78:25:32:0e:3e:6b:51:de:01:f8:ae:5f:
                    ab:9a:ff:a1:3b:f8:a4:35:49:5d:ce:b6:75:97:6e:
                    01:be:80:7d:5f:56:aa:b6:bc:2e:d8:b3:d0:0f:90:
                    09:99:2c:f2:a6:53:84:76:40:c2:90:47:d4:79:c0:
                    30:38:f9:37:54:09:7b:bc:36:40:99:74:63:de:36:
                    57:7a:9c:a5:dd:3b:12:6e:a5:90:4a:d2:fa:62:c2:
                    67:bc:e4:d1:60:78:84:87:06:7a:53:80:b5:53:35:
                    d1:be:42:44:99:a4:99:9e:fb:8d:dd:dc:cd:4a:a5:
                    52:9e:e1:23:47:e6:28:9e:6c:22:af:d2:29:5b:cf:
                    7f:b2:7e:c4:cd:de:05:50:55:73:97:8d:cf:69:60:
                    69:ac:f7:46:33:97:6f:31:7b:b9:39:79:4c:6c:d7:
                    11:88:b9:93:57:d3:8f:8b:a7:ef:cd:0a:a1:7f:ee:
                    c9:5d
                Exponent: 65537 (0x10001)
        X509v3 extensions:
            X509v3 Basic Constraints: 
                CA:FALSE
            X509v3 Subject Key Identifier: 
                20:0F:FE:9A:75:79:5F:DB:C6:B4:97:3B:35:E3:AC:E7:52:E2:25:71
            X509v3 Authority Key Identifier: 
                keyid:33:36:1F:93:06:AF:55:7F:FF:5E:EE:A3:D7:01:9C:14:ED:EF:CD:21
                DirName:/CN=Red Hat Training
                serial:6E:1D:62:2B:1D:BA:68:F6:C3:A9:E5:26:4C:09:AC:29:58:57:9F:61
            X509v3 Extended Key Usage: 
                TLS Web Server Authentication
            X509v3 Key Usage: 
                Digital Signature, Key Encipherment
            X509v3 Subject Alternative Name: 
                DNS:server
    Signature Algorithm: sha256WithRSAEncryption
    Signature Value:
        54:fc:86:70:c1:0c:47:92:5d:81:fe:4e:19:a3:05:14:64:e1:
        0a:b0:6e:4b:73:d5:f6:b3:73:af:74:4e:9e:c4:fb:6a:f7:c3:
        15:02:98:15:b0:a3:a5:d4:40:0f:a3:06:c1:bb:d9:fe:97:b2:
        ab:7f:89:b3:b1:1f:47:b8:c6:e0:47:5a:5a:e3:2f:37:c9:7d:
        d3:a3:46:06:b8:1f:82:b2:e4:ca:18:9e:34:2d:51:66:a8:d9:
        3e:f2:c8:d5:76:e9:b6:83:8f:0f:c3:51:41:89:d4:6e:dd:d9:
        96:9a:a3:e2:d9:05:82:ee:db:d6:f8:1f:2e:4a:dd:0d:73:9e:
        f6:20:fc:ed:17:d6:fc:58:b1:8a:f7:ce:41:ec:56:fb:d3:ec:
        fe:47:40:b2:11:7b:1b:9b:4a:f8:2b:0b:2c:0f:8b:11:36:a0:
        69:c4:df:83:d5:56:9c:ce:57:03:07:eb:38:75:05:0f:06:6f:
        82:bb:8b:7d:43:50:f2:7d:c0:37:0d:09:e5:fe:ef:4e:b4:6e:
        c9:36:ab:de:db:7c:1e:d0:77:2f:e2:3f:bc:a0:99:0c:65:2c:
        c9:34:55:7c:1d:16:ef:d4:e4:f4:3a:a9:30:02:6a:aa:f2:c5:
        59:53:8a:47:4a:f6:79:03:ca:ef:58:af:ad:ee:bd:9c:cb:ff:
        c4:71:9f:e5
-----BEGIN CERTIFICATE-----
MIIDdDCCAlygAwIBAgIRAK+e/a9xV7Sc2LEbQA3moD0wDQYJKoZIhvcNAQELBQAw
GzEZMBcGA1UEAwwQUmVkIEhhdCBUcmFpbmluZzAgFw0yMzEwMjQwNTM1MzhaGA8y
MTIzMDkzMDA1MzUzOFowETEPMA0GA1UEAwwGc2VydmVyMIIBIjANBgkqhkiG9w0B
AQEFAAOCAQ8AMIIBCgKCAQEAwcajskouVqGwZ1YY0KvM9sguoV9oiTlsVXpZ/JR6
nhCY8gFf+A9gWTlG3pRs5Q+5TRpCfVUQb6Q9zsN/Sb1l3JdmEEwMgzWiuC2oW0Z4
JTIOPmtR3gH4rl+rmv+hO/ikNUldzrZ1l24BvoB9X1aqtrwu2LPQD5AJmSzyplOE
dkDCkEfUecAwOPk3VAl7vDZAmXRj3jZXepyl3TsSbqWQStL6YsJnvOTRYHiEhwZ6
U4C1UzXRvkJEmaSZnvuN3dzNSqVSnuEjR+Yonmwir9IpW89/sn7Ezd4FUFVzl43P
aWBprPdGM5dvMXu5OXlMbNcRiLmTV9OPi6fvzQqhf+7JXQIDAQABo4G6MIG3MAkG
A1UdEwQCMAAwHQYDVR0OBBYEFCAP/pp1eV/bxrSXOzXjrOdS4iVxMFYGA1UdIwRP
ME2AFDM2H5MGr1V//17uo9cBnBTt780hoR+kHTAbMRkwFwYDVQQDDBBSZWQgSGF0
IFRyYWluaW5nghRuHWIrHbpo9sOp5SZMCawpWFefYTATBgNVHSUEDDAKBggrBgEF
BQcDATALBgNVHQ8EBAMCBaAwEQYDVR0RBAowCIIGc2VydmVyMA0GCSqGSIb3DQEB
CwUAA4IBAQBU/IZwwQxHkl2B/k4ZowUUZOEKsG5Lc9X2s3OvdE6exPtq98MVApgV
sKOl1EAPowbBu9n+l7Krf4mzsR9HuMbgR1pa4y83yX3To0YGuB+CsuTKGJ40LVFm
qNk+8sjVdum2g48Pw1FBidRu3dmWmqPi2QWC7tvW+B8uSt0Nc572IPztF9b8WLGK
985B7Fb70+z+R0CyEXsbm0r4KwssD4sRNqBpxN+D1VaczlcDB+s4dQUPBm+Cu4t9
Q1DyfcA3DQnl/u9OtG7JNqve23we0Hcv4j+8oJkMZSzJNFV8HRbv1OT0OqkwAmqq
8sVZU4pHSvZ5A8rvWK+t7r2cy//EcZ/l
-----END CERTIFICATE-----
